0x0000000080000000: 04 80 00 6f j	0x80000048
0x0000000080000048: 00 00 00 93 li	ra, 0
0x000000008000004c: 00 00 01 13 li	sp, 0
0x0000000080000050: 00 00 01 93 li	gp, 0
0x0000000080000054: 00 00 02 13 li	tp, 0
0x0000000080000058: 00 00 02 93 li	t0, 0
0x000000008000005c: 00 00 03 13 li	t1, 0
0x0000000080000060: 00 00 03 93 li	t2, 0
0x0000000080000064: 00 00 04 13 li	s0, 0
0x0000000080000068: 00 00 04 93 li	s1, 0
0x000000008000006c: 00 00 05 13 li	a0, 0
0x0000000080000070: 00 00 05 93 li	a1, 0
0x0000000080000074: 00 00 06 13 li	a2, 0
0x0000000080000078: 00 00 06 93 li	a3, 0
0x000000008000007c: 00 00 07 13 li	a4, 0
0x0000000080000080: 00 00 07 93 li	a5, 0
0x0000000080000084: 00 00 08 13 li	a6, 0
0x0000000080000088: 00 00 08 93 li	a7, 0
0x000000008000008c: 00 00 09 13 li	s2, 0
0x0000000080000090: 00 00 09 93 li	s3, 0
0x0000000080000094: 00 00 0a 13 li	s4, 0
0x0000000080000098: 00 00 0a 93 li	s5, 0
0x000000008000009c: 00 00 0b 13 li	s6, 0
0x00000000800000a0: 00 00 0b 93 li	s7, 0
0x00000000800000a4: 00 00 0c 13 li	s8, 0
0x00000000800000a8: 00 00 0c 93 li	s9, 0
0x00000000800000ac: 00 00 0d 13 li	s10, 0
0x00000000800000b0: 00 00 0d 93 li	s11, 0
0x00000000800000b4: 00 00 0e 13 li	t3, 0
0x00000000800000b8: 00 00 0e 93 li	t4, 0
0x00000000800000bc: 00 00 0f 13 li	t5, 0
0x00000000800000c0: 00 00 0f 93 li	t6, 0
0x00000000800000c4: 00 20 01 93 li	gp, 2
0x00000000800000c8: 01 40 00 93 li	ra, 20
0x00000000800000cc: 00 60 01 13 li	sp, 6
0x00000000800000d0: 02 20 e7 3b remw	a4, ra, sp
0x00000000800000d4: 00 20 03 93 li	t2, 2
0x00000000800000d8: 0e 77 10 63 bne	a4, t2, 0x800001b8
0x00000000800000dc: 00 30 01 93 li	gp, 3
0x00000000800000e0: fe c0 00 93 li	ra, -20
0x00000000800000e4: 00 60 01 13 li	sp, 6
0x00000000800000e8: 02 20 e7 3b remw	a4, ra, sp
0x00000000800000ec: ff e0 03 93 li	t2, -2
0x00000000800000f0: 0c 77 14 63 bne	a4, t2, 0x800001b8
0x00000000800000f4: 00 40 01 93 li	gp, 4
0x00000000800000f8: 01 40 00 93 li	ra, 20
0x00000000800000fc: ff a0 01 13 li	sp, -6
0x0000000080000100: 02 20 e7 3b remw	a4, ra, sp
0x0000000080000104: 00 20 03 93 li	t2, 2
0x0000000080000108: 0a 77 18 63 bne	a4, t2, 0x800001b8
0x000000008000010c: 00 50 01 93 li	gp, 5
0x0000000080000110: fe c0 00 93 li	ra, -20
0x0000000080000114: ff a0 01 13 li	sp, -6
0x0000000080000118: 02 20 e7 3b remw	a4, ra, sp
0x000000008000011c: ff e0 03 93 li	t2, -2
0x0000000080000120: 08 77 1c 63 bne	a4, t2, 0x800001b8
0x0000000080000124: 00 60 01 93 li	gp, 6
0x0000000080000128: 80 00 00 b7 lui	ra, 524288
0x000000008000012c: 00 10 01 13 li	sp, 1
0x0000000080000130: 02 20 e7 3b remw	a4, ra, sp
0x0000000080000134: 00 00 03 93 li	t2, 0
0x0000000080000138: 08 77 10 63 bne	a4, t2, 0x800001b8
0x000000008000013c: 00 70 01 93 li	gp, 7
0x0000000080000140: 80 00 00 b7 lui	ra, 524288
0x0000000080000144: ff f0 01 13 li	sp, -1
0x0000000080000148: 02 20 e7 3b remw	a4, ra, sp
0x000000008000014c: 00 00 03 93 li	t2, 0
0x0000000080000150: 06 77 14 63 bne	a4, t2, 0x800001b8
0x0000000080000154: 00 80 01 93 li	gp, 8
0x0000000080000158: 80 00 00 b7 lui	ra, 524288
0x000000008000015c: 00 00 01 13 li	sp, 0
0x0000000080000160: 02 20 e7 3b remw	a4, ra, sp
0x0000000080000164: 80 00 03 b7 lui	t2, 524288
0x0000000080000168: 04 77 18 63 bne	a4, t2, 0x800001b8
0x000000008000016c: 00 90 01 93 li	gp, 9
0x0000000080000170: 00 10 00 93 li	ra, 1
0x0000000080000174: 00 00 01 13 li	sp, 0
0x0000000080000178: 02 20 e7 3b remw	a4, ra, sp
0x000000008000017c: 00 10 03 93 li	t2, 1
0x0000000080000180: 02 77 1c 63 bne	a4, t2, 0x800001b8
0x0000000080000184: 00 a0 01 93 li	gp, 10
0x0000000080000188: 00 00 00 93 li	ra, 0
0x000000008000018c: 00 00 01 13 li	sp, 0
0x0000000080000190: 02 20 e7 3b remw	a4, ra, sp
0x0000000080000194: 00 00 03 93 li	t2, 0
0x0000000080000198: 02 77 10 63 bne	a4, t2, 0x800001b8
0x000000008000019c: 00 b0 01 93 li	gp, 11
0x00000000800001a0: 89 70 00 93 li	ra, -1897
0x00000000800001a4: 00 00 01 13 li	sp, 0
0x00000000800001a8: 02 20 e7 3b remw	a4, ra, sp
0x00000000800001ac: 89 70 03 93 li	t2, -1897
0x00000000800001b0: 00 77 14 63 bne	a4, t2, 0x800001b8
0x00000000800001b4: 00 30 1e 63 bne	zero, gp, 0x800001d0
0x00000000800001d0: 00 10 01 93 li	gp, 1
0x00000000800001d4: 05 d0 08 93 li	a7, 93
0x00000000800001d8: 00 00 05 13 li	a0, 0
